target datalayout = "e-m:e-p270:32:32-p271:32:32-p272:64:64-i64:64-i128:128-f80:128-n8:16:32:64-S128"
target triple = "x86_64-pc-linux-gnu"

%struct.UBiDi = type { ptr, ptr, i32, i32, i32, i32, i32, i32, i32, i32, i32, ptr, ptr, ptr, ptr, ptr, ptr, i8, i8, ptr, ptr, i8, i32, i32, i8, i8, i8, ptr, i32, ptr, i32, ptr, i32, i32, i32, i32, i32, ptr, [10 x %struct.Para], i32, ptr, [1 x %struct.Run], i32, ptr, [5 x %struct.Isolate], %struct.InsertPoints, i32, ptr, ptr }
%struct.Para = type { i32, i32 }
%struct.Run = type { i32, i32, i32 }
%struct.Isolate = type { i32, i32, i32, i16 }
%struct.InsertPoints = type { i32, i32, i32, i32, ptr }

; Function Attrs: mustprogress nounwind uwtable
define signext i8 @ubidi_isInverse_77(ptr noundef %0) #7 {
  %2 = alloca i8, align 1
  %3 = alloca ptr, align 8
  store ptr %0, ptr %3, align 8, !tbaa !11
  %4 = load ptr, ptr %3, align 8, !tbaa !11
  %5 = icmp ne ptr %4, null
  br i1 %5, label %6, label %10

6:                                                ; preds = %1
  %7 = load ptr, ptr %3, align 8, !tbaa !11
  %8 = getelementptr inbounds nuw %struct.UBiDi, ptr %7, i32 0, i32 21
  %9 = load i8, ptr %8, align 8, !tbaa !41
  store i8 %9, ptr %2, align 1
  br label %11

10:                                               ; preds = %1
  store i8 0, ptr %2, align 1
  br label %11

11:                                               ; preds = %10, %6
  %12 = load i8, ptr %2, align 1
  ret i8 %12
}